target datalayout = "e-m:e-p270:32:32-p271:32:32-p272:64:64-i64:64-i128:128-f80:128-n8:16:32:64-S128"
target triple = "x86_64-pc-linux-gnu"

%struct.ZSTDv07_customMem = type { ptr, ptr, ptr }
%struct.ZSTDv07_DCtx_s = type { [513 x i32], [257 x i32], [513 x i32], [4097 x i32], ptr, ptr, ptr, ptr, i64, [3 x i32], %struct.ZSTDv07_frameParams, i32, i32, i32, i32, %struct.XXH64_state_s, i64, i32, ptr, %struct.ZSTDv07_customMem, i64, [131080 x i8], [18 x i8] }
%struct.ZSTDv07_frameParams = type { i64, i32, i32, i32 }
%struct.XXH64_state_s = type { i64, [4 x i64], [4 x i64], i32, i32, i64 }

@repStartValue = internal constant [3 x i32] [i32 1, i32 4, i32 8], align 4
@defaultCustomMem = internal constant %struct.ZSTDv07_customMem { ptr @ZSTDv07_defaultAllocFunction, ptr @ZSTDv07_defaultFreeFunction, ptr null }, align 8

; Function Attrs: nounwind uwtable
define i64 @ZSTDv07_decompressBegin(ptr noundef %0) #0 {
  %2 = alloca ptr, align 8
  %3 = alloca i32, align 4
  store ptr %0, ptr %2, align 8, !tbaa !67
  %4 = load ptr, ptr %2, align 8, !tbaa !67
  %5 = getelementptr inbounds nuw %struct.ZSTDv07_DCtx_s, ptr %4, i32 0, i32 8
  store i64 5, ptr %5, align 8, !tbaa !69
  %6 = load ptr, ptr %2, align 8, !tbaa !67
  %7 = getelementptr inbounds nuw %struct.ZSTDv07_DCtx_s, ptr %6, i32 0, i32 12
  store i32 0, ptr %7, align 4, !tbaa !75
  %8 = load ptr, ptr %2, align 8, !tbaa !67
  %9 = getelementptr inbounds nuw %struct.ZSTDv07_DCtx_s, ptr %8, i32 0, i32 4
  store ptr null, ptr %9, align 8, !tbaa !76
  %10 = load ptr, ptr %2, align 8, !tbaa !67
  %11 = getelementptr inbounds nuw %struct.ZSTDv07_DCtx_s, ptr %10, i32 0, i32 5
  store ptr null, ptr %11, align 8, !tbaa !77
  %12 = load ptr, ptr %2, align 8, !tbaa !67
  %13 = getelementptr inbounds nuw %struct.ZSTDv07_DCtx_s, ptr %12, i32 0, i32 6
  store ptr null, ptr %13, align 8, !tbaa !78
  %14 = load ptr, ptr %2, align 8, !tbaa !67
  %15 = getelementptr inbounds nuw %struct.ZSTDv07_DCtx_s, ptr %14, i32 0, i32 7
  store ptr null, ptr %15, align 8, !tbaa !79
  %16 = load ptr, ptr %2, align 8, !tbaa !67
  %17 = getelementptr inbounds nuw %struct.ZSTDv07_DCtx_s, ptr %16, i32 0, i32 3
  %18 = getelementptr inbounds [4097 x i32], ptr %17, i64 0, i64 0
  store i32 201326604, ptr %18, align 4, !tbaa !15
  %19 = load ptr, ptr %2, align 8, !tbaa !67
  %20 = getelementptr inbounds nuw %struct.ZSTDv07_DCtx_s, ptr %19, i32 0, i32 14
  store i32 0, ptr %20, align 4, !tbaa !80
  %21 = load ptr, ptr %2, align 8, !tbaa !67
  %22 = getelementptr inbounds nuw %struct.ZSTDv07_DCtx_s, ptr %21, i32 0, i32 13
  store i32 0, ptr %22, align 8, !tbaa !81
  %23 = load ptr, ptr %2, align 8, !tbaa !67
  %24 = getelementptr inbounds nuw %struct.ZSTDv07_DCtx_s, ptr %23, i32 0, i32 17
  store i32 0, ptr %24, align 8, !tbaa !82
  call void @llvm.lifetime.start.p0(i64 4, ptr %3) #11
  store i32 0, ptr %3, align 4, !tbaa !15
  br label %25

25:                                               ; preds = %38, %1
  %26 = load i32, ptr %3, align 4, !tbaa !15
  %27 = icmp slt i32 %26, 3
  br i1 %27, label %28, label %41

28:                                               ; preds = %25
  %29 = load i32, ptr %3, align 4, !tbaa !15
  %30 = sext i32 %29 to i64
  %31 = getelementptr inbounds [3 x i32], ptr @repStartValue, i64 0, i64 %30
  %32 = load i32, ptr %31, align 4, !tbaa !15
  %33 = load ptr, ptr %2, align 8, !tbaa !67
  %34 = getelementptr inbounds nuw %struct.ZSTDv07_DCtx_s, ptr %33, i32 0, i32 9
  %35 = load i32, ptr %3, align 4, !tbaa !15
  %36 = sext i32 %35 to i64
  %37 = getelementptr inbounds [3 x i32], ptr %34, i64 0, i64 %36
  store i32 %32, ptr %37, align 4, !tbaa !15
  br label %38

38:                                               ; preds = %28
  %39 = load i32, ptr %3, align 4, !tbaa !15
  %40 = add nsw i32 %39, 1
  store i32 %40, ptr %3, align 4, !tbaa !15
  br label %25, !llvm.loop !83

41:                                               ; preds = %25
  call void @llvm.lifetime.end.p0(i64 4, ptr %3) #11
  ret i64 0
}

; Function Attrs: nounwind uwtable
define ptr @ZSTDv07_createDCtx_advanced(ptr noundef byval(%struct.ZSTDv07_customMem) align 8 %0) #0 {
  %2 = alloca ptr, align 8
  %3 = alloca ptr, align 8
  %4 = alloca i32, align 4
  call void @llvm.lifetime.start.p0(i64 8, ptr %3) #11
  %5 = getelementptr inbounds nuw %struct.ZSTDv07_customMem, ptr %0, i32 0, i32 0
  %6 = load ptr, ptr %5, align 8, !tbaa !84
  %7 = icmp ne ptr %6, null
  br i1 %7, label %13, label %8

8:                                                ; preds = %1
  %9 = getelementptr inbounds nuw %struct.ZSTDv07_customMem, ptr %0, i32 0, i32 1
  %10 = load ptr, ptr %9, align 8, !tbaa !85
  %11 = icmp ne ptr %10, null
  br i1 %11, label %13, label %12

12:                                               ; preds = %8
  call void @llvm.memcpy.p0.p0.i64(ptr align 8 %0, ptr align 8 @defaultCustomMem, i64 24, i1 false), !tbaa.struct !86
  br label %13

13:                                               ; preds = %12, %8, %1
  %14 = getelementptr inbounds nuw %struct.ZSTDv07_customMem, ptr %0, i32 0, i32 0
  %15 = load ptr, ptr %14, align 8, !tbaa !84
  %16 = icmp ne ptr %15, null
  br i1 %16, label %17, label %21

17:                                               ; preds = %13
  %18 = getelementptr inbounds nuw %struct.ZSTDv07_customMem, ptr %0, i32 0, i32 1
  %19 = load ptr, ptr %18, align 8, !tbaa !85
  %20 = icmp ne ptr %19, null
  br i1 %20, label %22, label %21

21:                                               ; preds = %17, %13
  store ptr null, ptr %2, align 8
  store i32 1, ptr %4, align 4
  br label %37

22:                                               ; preds = %17
  %23 = getelementptr inbounds nuw %struct.ZSTDv07_customMem, ptr %0, i32 0, i32 0
  %24 = load ptr, ptr %23, align 8, !tbaa !84
  %25 = getelementptr inbounds nuw %struct.ZSTDv07_customMem, ptr %0, i32 0, i32 2
  %26 = load ptr, ptr %25, align 8, !tbaa !87
  %27 = call ptr %24(ptr noundef %26, i64 noundef 152864)
  store ptr %27, ptr %3, align 8, !tbaa !67
  %28 = load ptr, ptr %3, align 8, !tbaa !67
  %29 = icmp ne ptr %28, null
  br i1 %29, label %31, label %30

30:                                               ; preds = %22
  store ptr null, ptr %2, align 8
  store i32 1, ptr %4, align 4
  br label %37

31:                                               ; preds = %22
  %32 = load ptr, ptr %3, align 8, !tbaa !67
  %33 = getelementptr inbounds nuw %struct.ZSTDv07_DCtx_s, ptr %32, i32 0, i32 19
  call void @llvm.memcpy.p0.p0.i64(ptr align 8 %33, ptr align 8 %0, i64 24, i1 false)
  %34 = load ptr, ptr %3, align 8, !tbaa !67
  %35 = call i64 @ZSTDv07_decompressBegin(ptr noundef %34)
  %36 = load ptr, ptr %3, align 8, !tbaa !67
  store ptr %36, ptr %2, align 8
  store i32 1, ptr %4, align 4
  br label %37

37:                                               ; preds = %31, %30, %21
  call void @llvm.lifetime.end.p0(i64 8, ptr %3) #11
  %38 = load ptr, ptr %2, align 8
  ret ptr %38
}