; Function Attrs: nounwind uwtable
define ptr @ZSTDv07_createDCtx_advanced(ptr noundef byval(%struct.ZSTDv07_customMem) align 8 captures(none) %0) local_unnamed_addr #1 {
  %2 = load ptr, ptr %0, align 8, !tbaa !72
  %3 = icmp ne ptr %2, null
  %4 = getelementptr inbounds nuw i8, ptr %0, i64 8
  %5 = load ptr, ptr %4, align 8
  %6 = icmp ne ptr %5, null
  %or.cond = select i1 %3, i1 true, i1 %6
  br i1 %or.cond, label %8, label %7

7:                                                ; preds = %1
  call void @llvm.memcpy.p0.p0.i64(ptr noundef nonnull align 8 dereferenceable(24) %0, ptr noundef nonnull align 8 dereferenceable(24) @defaultCustomMem, i64 24, i1 false), !tbaa.struct !73
  br label %8

8:                                                ; preds = %7, %1
  %9 = phi ptr [ @ZSTDv07_defaultFreeFunction, %7 ], [ %5, %1 ]
  %10 = phi ptr [ @ZSTDv07_defaultAllocFunction, %7 ], [ %2, %1 ]
  %11 = icmp ne ptr %10, null
  %12 = icmp ne ptr %9, null
  %or.cond5 = select i1 %11, i1 %12, i1 false
  br i1 %or.cond5, label %13, label %27

13:                                               ; preds = %8
  %14 = getelementptr inbounds nuw i8, ptr %0, i64 16
  %15 = load ptr, ptr %14, align 8, !tbaa !74
  %16 = tail call ptr %10(ptr noundef %15, i64 noundef 152864) #26
  %.not = icmp eq ptr %16, null
  br i1 %.not, label %27, label %17

17:                                               ; preds = %13
  %18 = getelementptr inbounds nuw i8, ptr %16, i64 21728
  call void @llvm.memcpy.p0.p0.i64(ptr noundef nonnull align 8 dereferenceable(24) %18, ptr noundef nonnull align 8 dereferenceable(24) %0, i64 24, i1 false)
  %19 = getelementptr inbounds nuw i8, ptr %16, i64 21552
  store i64 5, ptr %19, align 8, !tbaa !62
  %20 = getelementptr inbounds nuw i8, ptr %16, i64 21604
  store i32 0, ptr %20, align 4, !tbaa !68
  %21 = getelementptr inbounds nuw i8, ptr %16, i64 21520
  %22 = getelementptr inbounds nuw i8, ptr %16, i64 5132
  tail call void @llvm.memset.p0.i64(ptr noundef nonnull align 8 dereferenceable(32) %21, i8 0, i64 32, i1 false)
  store i32 201326604, ptr %22, align 4, !tbaa !3
  %23 = getelementptr inbounds nuw i8, ptr %16, i64 21612
  store i32 0, ptr %23, align 4, !tbaa !69
  %24 = getelementptr inbounds nuw i8, ptr %16, i64 21608
  store i32 0, ptr %24, align 8, !tbaa !70
  %25 = getelementptr inbounds nuw i8, ptr %16, i64 21712
  store i32 0, ptr %25, align 8, !tbaa !71
  %26 = getelementptr inbounds nuw i8, ptr %16, i64 21560
  tail call void @llvm.memcpy.p0.p0.i64(ptr noundef nonnull align 4 dereferenceable(12) %26, ptr noundef nonnull align 4 dereferenceable(12) @repStartValue, i64 12, i1 false), !tbaa !3
  br label %27

27:                                               ; preds = %13, %8, %17
  %.0 = phi ptr [ %16, %17 ], [ null, %8 ], [ null, %13 ]
  ret ptr %.0
}